target datalayout = "e-m:e-p270:32:32-p271:32:32-p272:64:64-i64:64-i128:128-f80:128-n8:16:32:64-S128"
target triple = "x86_64-pc-linux-gnu"

%union.__SOCKADDR_ARG = type { ptr }

@.str.1 = private unnamed_addr constant [19 x i8] c"fcntl(%d, F_SETFL)\00", align 1
@.str.3 = private unnamed_addr constant [19 x i8] c"fcntl(%d, F_SETFD)\00", align 1

; Function Attrs: nounwind uwtable
define internal i32 @evutil_fast_socket_nonblocking(i32 noundef %0) #0 {
  %2 = alloca i32, align 4
  %3 = alloca i32, align 4
  store i32 %0, ptr %3, align 4
  %4 = load i32, ptr %3, align 4
  %5 = call i32 (i32, i32, ...) @fcntl(i32 noundef %4, i32 noundef 4, i32 noundef 2048)
  %6 = icmp eq i32 %5, -1
  br i1 %6, label %7, label %9

7:                                                ; preds = %1
  %8 = load i32, ptr %3, align 4
  call void (ptr, ...) @event_warn(ptr noundef @.str.1, i32 noundef %8)
  store i32 -1, ptr %2, align 4
  br label %10

9:                                                ; preds = %1
  store i32 0, ptr %2, align 4
  br label %10

10:                                               ; preds = %9, %7
  %11 = load i32, ptr %2, align 4
  ret i32 %11
}

; Function Attrs: nounwind uwtable
define i32 @evutil_closesocket(i32 noundef %0) #0 {
  %2 = alloca i32, align 4
  store i32 %0, ptr %2, align 4
  %3 = load i32, ptr %2, align 4
  %4 = call i32 @close(i32 noundef %3)
  ret i32 %4
}

; Function Attrs: nounwind uwtable
define internal i32 @evutil_fast_socket_closeonexec(i32 noundef %0) #0 {
  %2 = alloca i32, align 4
  %3 = alloca i32, align 4
  store i32 %0, ptr %3, align 4
  %4 = load i32, ptr %3, align 4
  %5 = call i32 (i32, i32, ...) @fcntl(i32 noundef %4, i32 noundef 2, i32 noundef 1)
  %6 = icmp eq i32 %5, -1
  br i1 %6, label %7, label %9

7:                                                ; preds = %1
  %8 = load i32, ptr %3, align 4
  call void (ptr, ...) @event_warn(ptr noundef @.str.3, i32 noundef %8)
  store i32 -1, ptr %2, align 4
  br label %10

9:                                                ; preds = %1
  store i32 0, ptr %2, align 4
  br label %10

10:                                               ; preds = %9, %7
  %11 = load i32, ptr %2, align 4
  ret i32 %11
}

; Function Attrs: nounwind uwtable
define hidden i32 @evutil_accept4_(i32 noundef %0, ptr noundef %1, ptr noundef %2, i32 noundef %3) #0 {
  %5 = alloca i32, align 4
  %6 = alloca i32, align 4
  %7 = alloca ptr, align 8
  %8 = alloca ptr, align 8
  %9 = alloca i32, align 4
  %10 = alloca i32, align 4
  %11 = alloca %union.__SOCKADDR_ARG, align 8
  %12 = alloca i32, align 4
  %13 = alloca %union.__SOCKADDR_ARG, align 8
  store i32 %0, ptr %6, align 4
  store ptr %1, ptr %7, align 8
  store ptr %2, ptr %8, align 8
  store i32 %3, ptr %9, align 4
  call void @llvm.lifetime.start.p0(i64 4, ptr %10) #11
  %14 = load i32, ptr %6, align 4
  %15 = load ptr, ptr %7, align 8
  store ptr %15, ptr %11, align 8
  %16 = load ptr, ptr %8, align 8
  %17 = load i32, ptr %9, align 4
  %18 = getelementptr inbounds nuw %union.__SOCKADDR_ARG, ptr %11, i32 0, i32 0
  %19 = load ptr, ptr %18, align 8
  %20 = call i32 @accept4(i32 noundef %14, ptr %19, ptr noundef %16, i32 noundef %17)
  store i32 %20, ptr %10, align 4
  %21 = load i32, ptr %10, align 4
  %22 = icmp sge i32 %21, 0
  br i1 %22, label %31, label %23

23:                                               ; preds = %4
  %24 = call ptr @__errno_location() #12
  %25 = load i32, ptr %24, align 4
  %26 = icmp ne i32 %25, 22
  br i1 %26, label %27, label %33

27:                                               ; preds = %23
  %28 = call ptr @__errno_location() #12
  %29 = load i32, ptr %28, align 4
  %30 = icmp ne i32 %29, 38
  br i1 %30, label %31, label %33

31:                                               ; preds = %27, %4
  %32 = load i32, ptr %10, align 4
  store i32 %32, ptr %5, align 4
  store i32 1, ptr %12, align 4
  br label %70

33:                                               ; preds = %27, %23
  %34 = load i32, ptr %6, align 4
  %35 = load ptr, ptr %7, align 8
  store ptr %35, ptr %13, align 8
  %36 = load ptr, ptr %8, align 8
  %37 = getelementptr inbounds nuw %union.__SOCKADDR_ARG, ptr %13, i32 0, i32 0
  %38 = load ptr, ptr %37, align 8
  %39 = call i32 @accept(i32 noundef %34, ptr %38, ptr noundef %36)
  store i32 %39, ptr %10, align 4
  %40 = load i32, ptr %10, align 4
  %41 = icmp slt i32 %40, 0
  br i1 %41, label %42, label %44

42:                                               ; preds = %33
  %43 = load i32, ptr %10, align 4
  store i32 %43, ptr %5, align 4
  store i32 1, ptr %12, align 4
  br label %70

44:                                               ; preds = %33
  %45 = load i32, ptr %9, align 4
  %46 = and i32 %45, 524288
  %47 = icmp ne i32 %46, 0
  br i1 %47, label %48, label %56

48:                                               ; preds = %44
  %49 = load i32, ptr %10, align 4
  %50 = call i32 @evutil_fast_socket_closeonexec(i32 noundef %49)
  %51 = icmp slt i32 %50, 0
  br i1 %51, label %52, label %55

52:                                               ; preds = %48
  %53 = load i32, ptr %10, align 4
  %54 = call i32 @evutil_closesocket(i32 noundef %53)
  store i32 -1, ptr %5, align 4
  store i32 1, ptr %12, align 4
  br label %70

55:                                               ; preds = %48
  br label %56

56:                                               ; preds = %55, %44
  %57 = load i32, ptr %9, align 4
  %58 = and i32 %57, 2048
  %59 = icmp ne i32 %58, 0
  br i1 %59, label %60, label %68

60:                                               ; preds = %56
  %61 = load i32, ptr %10, align 4
  %62 = call i32 @evutil_fast_socket_nonblocking(i32 noundef %61)
  %63 = icmp slt i32 %62, 0
  br i1 %63, label %64, label %67

64:                                               ; preds = %60
  %65 = load i32, ptr %10, align 4
  %66 = call i32 @evutil_closesocket(i32 noundef %65)
  store i32 -1, ptr %5, align 4
  store i32 1, ptr %12, align 4
  br label %70

67:                                               ; preds = %60
  br label %68

68:                                               ; preds = %67, %56
  %69 = load i32, ptr %10, align 4
  store i32 %69, ptr %5, align 4
  store i32 1, ptr %12, align 4
  br label %70

70:                                               ; preds = %68, %64, %52, %42, %31
  call void @llvm.lifetime.end.p0(i64 4, ptr %10) #11
  %71 = load i32, ptr %5, align 4
  ret i32 %71
}