; Function Attrs: nounwind uwtable
define hidden i32 @evutil_accept4_(i32 noundef %0, ptr noundef %1, ptr noundef %2, i32 noundef %3) local_unnamed_addr #0 {
  %5 = tail call i32 @accept4(i32 noundef %0, ptr %1, ptr noundef %2, i32 noundef %3) #30
  %6 = icmp sgt i32 %5, -1
  br i1 %6, label %evutil_fast_socket_nonblocking.exit, label %7

7:                                                ; preds = %4
  %8 = tail call ptr @__errno_location() #31
  %9 = load i32, ptr %8, align 4
  switch i32 %9, label %evutil_fast_socket_nonblocking.exit [
    i32 22, label %10
    i32 38, label %10
  ]

10:                                               ; preds = %7, %7
  %11 = tail call i32 @accept(i32 noundef %0, ptr %1, ptr noundef %2) #30
  %12 = icmp slt i32 %11, 0
  br i1 %12, label %evutil_fast_socket_nonblocking.exit, label %13

13:                                               ; preds = %10
  %14 = and i32 %3, 524288
  %.not22 = icmp eq i32 %14, 0
  br i1 %.not22, label %evutil_fast_socket_closeonexec.exit, label %15

15:                                               ; preds = %13
  %16 = tail call i32 (i32, i32, ...) @fcntl(i32 noundef %11, i32 noundef 2, i32 noundef 1) #30
  %17 = icmp eq i32 %16, -1
  br i1 %17, label %evutil_fast_socket_nonblocking.exit.sink.split, label %evutil_fast_socket_closeonexec.exit

evutil_fast_socket_closeonexec.exit:              ; preds = %15, %13
  %18 = and i32 %3, 2048
  %.not23 = icmp eq i32 %18, 0
  br i1 %.not23, label %evutil_fast_socket_nonblocking.exit, label %19

19:                                               ; preds = %evutil_fast_socket_closeonexec.exit
  %20 = tail call i32 (i32, i32, ...) @fcntl(i32 noundef %11, i32 noundef 4, i32 noundef 2048) #30
  %21 = icmp eq i32 %20, -1
  br i1 %21, label %evutil_fast_socket_nonblocking.exit.sink.split, label %evutil_fast_socket_nonblocking.exit

evutil_fast_socket_nonblocking.exit.sink.split:   ; preds = %19, %15
  %.str.1.sink = phi ptr [ @.str.3, %15 ], [ @.str.1, %19 ]
  tail call void (ptr, ...) @event_warn(ptr noundef nonnull %.str.1.sink, i32 noundef %11) #30
  %22 = tail call i32 @close(i32 noundef %11) #30
  br label %evutil_fast_socket_nonblocking.exit

evutil_fast_socket_nonblocking.exit:              ; preds = %evutil_fast_socket_nonblocking.exit.sink.split, %19, %evutil_fast_socket_closeonexec.exit, %10, %4, %7
  %.0 = phi i32 [ %5, %7 ], [ %5, %4 ], [ %11, %10 ], [ %11, %evutil_fast_socket_closeonexec.exit ], [ %11, %19 ], [ -1, %evutil_fast_socket_nonblocking.exit.sink.split ]
  ret i32 %.0
}